; Function Attrs: mustprogress nounwind uwtable
define void @_ZN15colvarbias_metaD0Ev(ptr noundef nonnull align 8 dereferenceable(880) %0) unnamed_addr #1 align 2 {
  tail call void @_ZN15colvarbias_metaD2Ev(ptr noundef nonnull align 8 dereferenceable(880) %0, ptr noundef nonnull @_ZTT15colvarbias_meta) #22
  %2 = getelementptr inbounds i8, ptr %0, i64 1632
  tail call void @_ZN13colvarbias_tiD2Ev(ptr noundef nonnull align 8 dereferenceable(72) %2, ptr noundef nonnull getelementptr inbounds ([12 x ptr], ptr @_ZTT15colvarbias_meta, i64 0, i64 8)) #22
  %3 = getelementptr inbounds i8, ptr %0, i64 880
  tail call void @_ZN10colvarbiasD2Ev(ptr noundef nonnull align 8 dereferenceable(312) %3, ptr noundef nonnull getelementptr inbounds ([12 x ptr], ptr @_ZTT15colvarbias_meta, i64 0, i64 5)) #22
  %4 = getelementptr inbounds i8, ptr %0, i64 1512
  tail call void @_ZN10colvardepsD2Ev(ptr noundef nonnull align 8 dereferenceable(120) %4) #22
  %5 = getelementptr inbounds i8, ptr %0, i64 1192
  tail call void @_ZN11colvarparseD2Ev(ptr noundef nonnull align 8 dereferenceable(320) %5) #22
  tail call void @_ZdlPv(ptr noundef nonnull %0) #23
  ret void
}